; Function Attrs: nounwind uwtable
define i32 @Abc_GraphDeriveGia_rec(ptr noundef %0, i32 noundef %1, i32 noundef %2, ptr noundef %3, ptr noundef %4, ptr noundef %5, ptr noundef %6) local_unnamed_addr #1 {
  switch i32 %2, label %9 [
    i32 -2, label %common.ret47
    i32 -1, label %8
  ]

8:                                                ; preds = %7
  br label %common.ret47

9:                                                ; preds = %7
  %10 = sext i32 %1 to i64
  %11 = getelementptr inbounds ptr, ptr %4, i64 %10
  %12 = load ptr, ptr %11, align 8, !tbaa !72
  %13 = sext i32 %2 to i64
  %14 = getelementptr inbounds i32, ptr %12, i64 %13
  %15 = load i32, ptr %14, align 4, !tbaa !5
  %.not = icmp eq i32 %15, -1
  br i1 %.not, label %16, label %common.ret47

common.ret47:                                     ; preds = %9, %7, %8, %16
  %common.ret47.op = phi i32 [ %49, %16 ], [ 0, %8 ], [ 1, %7 ], [ %15, %9 ]
  ret i32 %common.ret47.op

16:                                               ; preds = %9
  %17 = getelementptr inbounds i32, ptr %5, i64 %10
  store i32 0, ptr %17, align 4, !tbaa !5
  %18 = add nsw i32 %1, 1
  %19 = getelementptr i8, ptr %3, i64 8
  %.val43 = load ptr, ptr %19, align 8, !tbaa !46
  %20 = shl nsw i32 %2, 1
  %21 = getelementptr %struct.Vec_Int_t_, ptr %.val43, i64 %10, i32 2
  %.val41 = load ptr, ptr %21, align 8, !tbaa !37
  %22 = sext i32 %20 to i64
  %23 = getelementptr inbounds i32, ptr %.val41, i64 %22
  %24 = load i32, ptr %23, align 4, !tbaa !5
  %25 = tail call i32 @Abc_GraphDeriveGia_rec(ptr noundef %0, i32 noundef %18, i32 noundef %24, ptr noundef %3, ptr noundef nonnull %4, ptr noundef %5, ptr noundef %6)
  store i32 1, ptr %17, align 4, !tbaa !5
  %.val42 = load ptr, ptr %19, align 8, !tbaa !46
  %26 = or disjoint i32 %20, 1
  %27 = getelementptr %struct.Vec_Int_t_, ptr %.val42, i64 %10, i32 2
  %.val = load ptr, ptr %27, align 8, !tbaa !37
  %28 = sext i32 %26 to i64
  %29 = getelementptr inbounds i32, ptr %.val, i64 %28
  %30 = load i32, ptr %29, align 4, !tbaa !5
  %31 = tail call i32 @Abc_GraphDeriveGia_rec(ptr noundef %0, i32 noundef %18, i32 noundef %30, ptr noundef %3, ptr noundef nonnull %4, ptr noundef %5, ptr noundef %6)
  %32 = getelementptr i8, ptr %0, i64 32
  %.val44 = load ptr, ptr %32, align 8, !tbaa !35
  %33 = getelementptr i8, ptr %0, i64 64
  %.val45 = load ptr, ptr %33, align 8, !tbaa !12
  %34 = getelementptr i8, ptr %.val45, i64 8
  %.val45.val = load ptr, ptr %34, align 8, !tbaa !37
  %35 = getelementptr inbounds i32, ptr %.val45.val, i64 %10
  %36 = load i32, ptr %35, align 4, !tbaa !5
  %37 = sext i32 %36 to i64
  %38 = getelementptr inbounds %struct.Gia_Obj_t_, ptr %.val44, i64 %37
  %39 = ptrtoint ptr %38 to i64
  %40 = and i64 %39, -2
  %41 = ptrtoint ptr %.val44 to i64
  %42 = sub i64 %40, %41
  %43 = sdiv exact i64 %42, 12
  %44 = trunc i64 %43 to i32
  %45 = trunc i64 %39 to i32
  %46 = and i32 %45, 1
  %47 = shl nsw i32 %44, 1
  %48 = or disjoint i32 %47, %46
  %49 = tail call i32 @Gia_ManHashMux(ptr noundef %0, i32 noundef %48, i32 noundef %31, i32 noundef %25) #23
  %50 = load ptr, ptr %11, align 8, !tbaa !72
  %51 = getelementptr inbounds i32, ptr %50, i64 %13
  store i32 %49, ptr %51, align 4, !tbaa !5
  br label %common.ret47
}